target datalayout = "e-m:e-p270:32:32-p271:32:32-p272:64:64-i64:64-i128:128-f80:128-n8:16:32:64-S128"
target triple = "x86_64-pc-linux-gnu"

%struct.Abc_Frame_t_ = type { ptr, ptr, ptr, ptr, ptr, ptr, ptr, ptr, ptr, ptr, i32, i32, i32, i32, i32, ptr, float, float, i32, i32, ptr, ptr, ptr, double, double, ptr, ptr, ptr, ptr, ptr, ptr, ptr, ptr, ptr, ptr, ptr, ptr, float, ptr, i32, ptr, ptr, ptr, ptr, ptr, i32, i32, i32, i32, i32, i32, ptr, ptr, ptr, ptr, ptr, ptr, i32, i32, ptr, ptr, ptr, ptr, ptr, ptr, ptr, ptr, ptr, ptr, ptr, ptr, ptr, ptr, ptr, ptr, ptr, ptr, ptr, ptr, ptr, ptr, ptr, ptr, ptr, ptr, ptr, ptr, ptr, ptr }

@globalUtilOptind = external global i32, align 4
@.str.26 = private unnamed_addr constant [73 x i8] c"Command line switch \22-S\22 should be followed by a floating point number.\0A\00", align 1
@.str.27 = private unnamed_addr constant [73 x i8] c"Command line switch \22-G\22 should be followed by a floating point number.\0A\00", align 1
@.str.28 = private unnamed_addr constant [68 x i8] c"Command line switch \22-M\22 should be followed by a positive integer.\0A\00", align 1
@.str.34 = private unnamed_addr constant [78 x i8] c"\09-S float : the slew parameter used to generate the library [default = %.2f]\0A\00", align 1
@.str.35 = private unnamed_addr constant [78 x i8] c"\09-G float : the gain parameter used to generate the library [default = %.2f]\0A\00", align 1
@.str.36 = private unnamed_addr constant [75 x i8] c"\09-M num   : skip gate classes whose size is less than this [default = %d]\0A\00", align 1
@.str.39 = private unnamed_addr constant [4 x i8] c"yes\00", align 1
@.str.40 = private unnamed_addr constant [3 x i8] c"no\00", align 1
@.str.54 = private unnamed_addr constant [40 x i8] c"There is no Liberty library available.\0A\00", align 1
@.str.74 = private unnamed_addr constant [64 x i8] c"\09-v       : toggle printing verbose information [default = %s]\0A\00", align 1
@.str.83 = private unnamed_addr constant [6 x i8] c"SGMvh\00", align 1
@.str.84 = private unnamed_addr constant [54 x i8] c"usage: dump_genlib [-SG float] [-M num] [-vh] <file>\0A\00", align 1
@.str.85 = private unnamed_addr constant [48 x i8] c"\09           writes GENLIB file for SCL library\0A\00", align 1
@.str.86 = private unnamed_addr constant [37 x i8] c"\09-h       : print the command usage\0A\00", align 1
@.str.87 = private unnamed_addr constant [39 x i8] c"\09<file>   : optional GENLIB file name\0A\00", align 1

; Function Attrs: inlinehint nounwind willreturn memory(read) uwtable
define available_externally i32 @atoi(ptr noundef nonnull %0) #7 {
  %2 = alloca ptr, align 8
  store ptr %0, ptr %2, align 8, !tbaa !56
  %3 = load ptr, ptr %2, align 8, !tbaa !56
  %4 = call i64 @strtol(ptr noundef %3, ptr noundef null, i32 noundef 10) #12
  %5 = trunc i64 %4 to i32
  ret i32 %5
}

; Function Attrs: inlinehint nounwind willreturn memory(read) uwtable
define available_externally double @atof(ptr noundef nonnull %0) #7 {
  %2 = alloca ptr, align 8
  store ptr %0, ptr %2, align 8, !tbaa !56
  %3 = load ptr, ptr %2, align 8, !tbaa !56
  %4 = call double @strtod(ptr noundef %3, ptr noundef null) #12
  ret double %4
}

; Function Attrs: nounwind uwtable
define internal i32 @Scl_CommandDumpGen(ptr noundef %0, i32 noundef %1, ptr noundef %2) #0 {
  %4 = alloca i32, align 4
  %5 = alloca ptr, align 8
  %6 = alloca i32, align 4
  %7 = alloca ptr, align 8
  %8 = alloca ptr, align 8
  %9 = alloca float, align 4
  %10 = alloca float, align 4
  %11 = alloca i32, align 4
  %12 = alloca i32, align 4
  %13 = alloca i32, align 4
  %14 = alloca i32, align 4
  store ptr %0, ptr %5, align 8, !tbaa !3
  store i32 %1, ptr %6, align 4, !tbaa !29
  store ptr %2, ptr %7, align 8, !tbaa !50
  call void @llvm.lifetime.start.p0(i64 8, ptr %8) #12
  store ptr null, ptr %8, align 8, !tbaa !56
  call void @llvm.lifetime.start.p0(i64 4, ptr %9) #12
  store float 0.000000e+00, ptr %9, align 4, !tbaa !52
  call void @llvm.lifetime.start.p0(i64 4, ptr %10) #12
  store float 2.000000e+02, ptr %10, align 4, !tbaa !52
  call void @llvm.lifetime.start.p0(i64 4, ptr %11) #12
  store i32 4, ptr %11, align 4, !tbaa !29
  call void @llvm.lifetime.start.p0(i64 4, ptr %12) #12
  call void @llvm.lifetime.start.p0(i64 4, ptr %13) #12
  store i32 0, ptr %13, align 4, !tbaa !29
  call void (...) @Extra_UtilGetoptReset()
  br label %15

15:                                               ; preds = %85, %3
  %16 = load i32, ptr %6, align 4, !tbaa !29
  %17 = load ptr, ptr %7, align 8, !tbaa !50
  %18 = call i32 @Extra_UtilGetopt(i32 noundef %16, ptr noundef %17, ptr noundef @.str.83)
  store i32 %18, ptr %12, align 4, !tbaa !29
  %19 = icmp ne i32 %18, -1
  br i1 %19, label %20, label %86

20:                                               ; preds = %15
  %21 = load i32, ptr %12, align 4, !tbaa !29
  switch i32 %21, label %84 [
    i32 83, label %22
    i32 71, label %42
    i32 77, label %62
    i32 118, label %80
    i32 104, label %83
  ]

22:                                               ; preds = %20
  %23 = load i32, ptr @globalUtilOptind, align 4, !tbaa !29
  %24 = load i32, ptr %6, align 4, !tbaa !29
  %25 = icmp sge i32 %23, %24
  br i1 %25, label %26, label %27

26:                                               ; preds = %22
  call void (i32, ptr, ...) @Abc_Print(i32 noundef -1, ptr noundef @.str.26)
  br label %115

27:                                               ; preds = %22
  %28 = load ptr, ptr %7, align 8, !tbaa !50
  %29 = load i32, ptr @globalUtilOptind, align 4, !tbaa !29
  %30 = sext i32 %29 to i64
  %31 = getelementptr inbounds ptr, ptr %28, i64 %30
  %32 = load ptr, ptr %31, align 8, !tbaa !56
  %33 = call double @atof(ptr noundef %32) #14
  %34 = fptrunc double %33 to float
  store float %34, ptr %9, align 4, !tbaa !52
  %35 = load i32, ptr @globalUtilOptind, align 4, !tbaa !29
  %36 = add nsw i32 %35, 1
  store i32 %36, ptr @globalUtilOptind, align 4, !tbaa !29
  %37 = load float, ptr %9, align 4, !tbaa !52
  %38 = fpext float %37 to double
  %39 = fcmp ole double %38, 0.000000e+00
  br i1 %39, label %40, label %41

40:                                               ; preds = %27
  br label %115

41:                                               ; preds = %27
  br label %85

42:                                               ; preds = %20
  %43 = load i32, ptr @globalUtilOptind, align 4, !tbaa !29
  %44 = load i32, ptr %6, align 4, !tbaa !29
  %45 = icmp sge i32 %43, %44
  br i1 %45, label %46, label %47

46:                                               ; preds = %42
  call void (i32, ptr, ...) @Abc_Print(i32 noundef -1, ptr noundef @.str.27)
  br label %115

47:                                               ; preds = %42
  %48 = load ptr, ptr %7, align 8, !tbaa !50
  %49 = load i32, ptr @globalUtilOptind, align 4, !tbaa !29
  %50 = sext i32 %49 to i64
  %51 = getelementptr inbounds ptr, ptr %48, i64 %50
  %52 = load ptr, ptr %51, align 8, !tbaa !56
  %53 = call double @atof(ptr noundef %52) #14
  %54 = fptrunc double %53 to float
  store float %54, ptr %10, align 4, !tbaa !52
  %55 = load i32, ptr @globalUtilOptind, align 4, !tbaa !29
  %56 = add nsw i32 %55, 1
  store i32 %56, ptr @globalUtilOptind, align 4, !tbaa !29
  %57 = load float, ptr %10, align 4, !tbaa !52
  %58 = fpext float %57 to double
  %59 = fcmp ole double %58, 0.000000e+00
  br i1 %59, label %60, label %61

60:                                               ; preds = %47
  br label %115

61:                                               ; preds = %47
  br label %85

62:                                               ; preds = %20
  %63 = load i32, ptr @globalUtilOptind, align 4, !tbaa !29
  %64 = load i32, ptr %6, align 4, !tbaa !29
  %65 = icmp sge i32 %63, %64
  br i1 %65, label %66, label %67

66:                                               ; preds = %62
  call void (i32, ptr, ...) @Abc_Print(i32 noundef -1, ptr noundef @.str.28)
  br label %115

67:                                               ; preds = %62
  %68 = load ptr, ptr %7, align 8, !tbaa !50
  %69 = load i32, ptr @globalUtilOptind, align 4, !tbaa !29
  %70 = sext i32 %69 to i64
  %71 = getelementptr inbounds ptr, ptr %68, i64 %70
  %72 = load ptr, ptr %71, align 8, !tbaa !56
  %73 = call i32 @atoi(ptr noundef %72) #14
  store i32 %73, ptr %11, align 4, !tbaa !29
  %74 = load i32, ptr @globalUtilOptind, align 4, !tbaa !29
  %75 = add nsw i32 %74, 1
  store i32 %75, ptr @globalUtilOptind, align 4, !tbaa !29
  %76 = load i32, ptr %11, align 4, !tbaa !29
  %77 = icmp slt i32 %76, 0
  br i1 %77, label %78, label %79

78:                                               ; preds = %67
  br label %115

79:                                               ; preds = %67
  br label %85

80:                                               ; preds = %20
  %81 = load i32, ptr %13, align 4, !tbaa !29
  %82 = xor i32 %81, 1
  store i32 %82, ptr %13, align 4, !tbaa !29
  br label %85

83:                                               ; preds = %20
  br label %115

84:                                               ; preds = %20
  br label %115

85:                                               ; preds = %80, %79, %61, %41
  br label %15, !llvm.loop !67

86:                                               ; preds = %15
  %87 = load ptr, ptr %5, align 8, !tbaa !3
  %88 = getelementptr inbounds nuw %struct.Abc_Frame_t_, ptr %87, i32 0, i32 34
  %89 = load ptr, ptr %88, align 8, !tbaa !58
  %90 = icmp eq ptr %89, null
  br i1 %90, label %91, label %96

91:                                               ; preds = %86
  %92 = load ptr, ptr %5, align 8, !tbaa !3
  %93 = getelementptr inbounds nuw %struct.Abc_Frame_t_, ptr %92, i32 0, i32 21
  %94 = load ptr, ptr %93, align 8, !tbaa !59
  %95 = call i32 (ptr, ptr, ...) @fprintf(ptr noundef %94, ptr noundef @.str.54) #12
  br label %115

96:                                               ; preds = %86
  %97 = load i32, ptr %6, align 4, !tbaa !29
  %98 = load i32, ptr @globalUtilOptind, align 4, !tbaa !29
  %99 = add nsw i32 %98, 1
  %100 = icmp eq i32 %97, %99
  br i1 %100, label %101, label %107

101:                                              ; preds = %96
  %102 = load ptr, ptr %7, align 8, !tbaa !50
  %103 = load i32, ptr @globalUtilOptind, align 4, !tbaa !29
  %104 = sext i32 %103 to i64
  %105 = getelementptr inbounds ptr, ptr %102, i64 %104
  %106 = load ptr, ptr %105, align 8, !tbaa !56
  store ptr %106, ptr %8, align 8, !tbaa !56
  br label %107

107:                                              ; preds = %101, %96
  %108 = load ptr, ptr %8, align 8, !tbaa !56
  %109 = load ptr, ptr %5, align 8, !tbaa !3
  %110 = getelementptr inbounds nuw %struct.Abc_Frame_t_, ptr %109, i32 0, i32 34
  %111 = load ptr, ptr %110, align 8, !tbaa !58
  %112 = load float, ptr %9, align 4, !tbaa !52
  %113 = load float, ptr %10, align 4, !tbaa !52
  %114 = load i32, ptr %11, align 4, !tbaa !29
  call void @Abc_SclDumpGenlib(ptr noundef %108, ptr noundef %111, float noundef %112, float noundef %113, i32 noundef %114)
  store i32 0, ptr %4, align 4
  store i32 1, ptr %14, align 4
  br label %156

115:                                              ; preds = %91, %84, %83, %78, %66, %60, %46, %40, %26
  %116 = load ptr, ptr %5, align 8, !tbaa !3
  %117 = getelementptr inbounds nuw %struct.Abc_Frame_t_, ptr %116, i32 0, i32 21
  %118 = load ptr, ptr %117, align 8, !tbaa !59
  %119 = call i32 (ptr, ptr, ...) @fprintf(ptr noundef %118, ptr noundef @.str.84) #12
  %120 = load ptr, ptr %5, align 8, !tbaa !3
  %121 = getelementptr inbounds nuw %struct.Abc_Frame_t_, ptr %120, i32 0, i32 21
  %122 = load ptr, ptr %121, align 8, !tbaa !59
  %123 = call i32 (ptr, ptr, ...) @fprintf(ptr noundef %122, ptr noundef @.str.85) #12
  %124 = load ptr, ptr %5, align 8, !tbaa !3
  %125 = getelementptr inbounds nuw %struct.Abc_Frame_t_, ptr %124, i32 0, i32 21
  %126 = load ptr, ptr %125, align 8, !tbaa !59
  %127 = load float, ptr %9, align 4, !tbaa !52
  %128 = fpext float %127 to double
  %129 = call i32 (ptr, ptr, ...) @fprintf(ptr noundef %126, ptr noundef @.str.34, double noundef %128) #12
  %130 = load ptr, ptr %5, align 8, !tbaa !3
  %131 = getelementptr inbounds nuw %struct.Abc_Frame_t_, ptr %130, i32 0, i32 21
  %132 = load ptr, ptr %131, align 8, !tbaa !59
  %133 = load float, ptr %10, align 4, !tbaa !52
  %134 = fpext float %133 to double
  %135 = call i32 (ptr, ptr, ...) @fprintf(ptr noundef %132, ptr noundef @.str.35, double noundef %134) #12
  %136 = load ptr, ptr %5, align 8, !tbaa !3
  %137 = getelementptr inbounds nuw %struct.Abc_Frame_t_, ptr %136, i32 0, i32 21
  %138 = load ptr, ptr %137, align 8, !tbaa !59
  %139 = load i32, ptr %11, align 4, !tbaa !29
  %140 = call i32 (ptr, ptr, ...) @fprintf(ptr noundef %138, ptr noundef @.str.36, i32 noundef %139) #12
  %141 = load ptr, ptr %5, align 8, !tbaa !3
  %142 = getelementptr inbounds nuw %struct.Abc_Frame_t_, ptr %141, i32 0, i32 21
  %143 = load ptr, ptr %142, align 8, !tbaa !59
  %144 = load i32, ptr %13, align 4, !tbaa !29
  %145 = icmp ne i32 %144, 0
  %146 = select i1 %145, ptr @.str.39, ptr @.str.40
  %147 = call i32 (ptr, ptr, ...) @fprintf(ptr noundef %143, ptr noundef @.str.74, ptr noundef %146) #12
  %148 = load ptr, ptr %5, align 8, !tbaa !3
  %149 = getelementptr inbounds nuw %struct.Abc_Frame_t_, ptr %148, i32 0, i32 21
  %150 = load ptr, ptr %149, align 8, !tbaa !59
  %151 = call i32 (ptr, ptr, ...) @fprintf(ptr noundef %150, ptr noundef @.str.86) #12
  %152 = load ptr, ptr %5, align 8, !tbaa !3
  %153 = getelementptr inbounds nuw %struct.Abc_Frame_t_, ptr %152, i32 0, i32 21
  %154 = load ptr, ptr %153, align 8, !tbaa !59
  %155 = call i32 (ptr, ptr, ...) @fprintf(ptr noundef %154, ptr noundef @.str.87) #12
  store i32 1, ptr %4, align 4
  store i32 1, ptr %14, align 4
  br label %156

156:                                              ; preds = %115, %107
  call void @llvm.lifetime.end.p0(i64 4, ptr %13) #12
  call void @llvm.lifetime.end.p0(i64 4, ptr %12) #12
  call void @llvm.lifetime.end.p0(i64 4, ptr %11) #12
  call void @llvm.lifetime.end.p0(i64 4, ptr %10) #12
  call void @llvm.lifetime.end.p0(i64 4, ptr %9) #12
  call void @llvm.lifetime.end.p0(i64 8, ptr %8) #12
  %157 = load i32, ptr %4, align 4
  ret i32 %157
}