; Function Attrs: nounwind uwtable
define internal range(i32 0, 2) i32 @Scl_CommandDumpGen(ptr noundef readonly captures(none) %0, i32 noundef %1, ptr noundef %2) #0 {
  tail call void (...) @Extra_UtilGetoptReset() #12
  br label %.outer

.outer:                                           ; preds = %9, %3
  %.040.ph = phi float [ %14, %9 ], [ 0.000000e+00, %3 ]
  %.037.ph = phi float [ %.037.ph123, %9 ], [ 2.000000e+02, %3 ]
  %.035.ph = phi i32 [ %.035.ph127, %9 ], [ 4, %3 ]
  %.0.ph = phi i32 [ %.0, %9 ], [ 0, %3 ]
  br label %.outer122

.outer122:                                        ; preds = %.outer, %20
  %.037.ph123 = phi float [ %.037.ph, %.outer ], [ %25, %20 ]
  %.035.ph124 = phi i32 [ %.035.ph, %.outer ], [ %.035.ph127, %20 ]
  %.0.ph125 = phi i32 [ %.0.ph, %.outer ], [ %.0, %20 ]
  br label %.outer126

.outer126:                                        ; preds = %.outer122, %31
  %.035.ph127 = phi i32 [ %.035.ph124, %.outer122 ], [ %36, %31 ]
  %.0.ph128 = phi i32 [ %.0.ph125, %.outer122 ], [ %.0, %31 ]
  br label %4

4:                                                ; preds = %.outer126, %39
  %.0 = phi i32 [ %40, %39 ], [ %.0.ph128, %.outer126 ]
  %5 = tail call i32 @Extra_UtilGetopt(i32 noundef %1, ptr noundef %2, ptr noundef nonnull @.str.83) #12
  switch i32 %5, label %.loopexit [
    i32 -1, label %41
    i32 83, label %6
    i32 71, label %17
    i32 77, label %28
    i32 118, label %39
  ]

6:                                                ; preds = %4
  %7 = load i32, ptr @globalUtilOptind, align 4, !tbaa !81
  %.not52 = icmp slt i32 %7, %1
  br i1 %.not52, label %9, label %8

8:                                                ; preds = %6
  tail call void (i32, ptr, ...) @Abc_Print(i32 noundef -1, ptr noundef nonnull @.str.26)
  br label %.loopexit

9:                                                ; preds = %6
  %10 = sext i32 %7 to i64
  %11 = getelementptr inbounds ptr, ptr %2, i64 %10
  %12 = load ptr, ptr %11, align 8, !tbaa !82
  %13 = tail call double @strtod(ptr noundef nonnull captures(none) %12, ptr noundef null) #12
  %14 = fptrunc double %13 to float
  %15 = add nsw i32 %7, 1
  store i32 %15, ptr @globalUtilOptind, align 4, !tbaa !81
  %16 = fcmp ugt float %14, 0.000000e+00
  br i1 %16, label %.outer, label %.loopexit, !llvm.loop !91

17:                                               ; preds = %4
  %18 = load i32, ptr @globalUtilOptind, align 4, !tbaa !81
  %.not51 = icmp slt i32 %18, %1
  br i1 %.not51, label %20, label %19

19:                                               ; preds = %17
  tail call void (i32, ptr, ...) @Abc_Print(i32 noundef -1, ptr noundef nonnull @.str.27)
  br label %.loopexit

20:                                               ; preds = %17
  %21 = sext i32 %18 to i64
  %22 = getelementptr inbounds ptr, ptr %2, i64 %21
  %23 = load ptr, ptr %22, align 8, !tbaa !82
  %24 = tail call double @strtod(ptr noundef nonnull captures(none) %23, ptr noundef null) #12
  %25 = fptrunc double %24 to float
  %26 = add nsw i32 %18, 1
  store i32 %26, ptr @globalUtilOptind, align 4, !tbaa !81
  %27 = fcmp ugt float %25, 0.000000e+00
  br i1 %27, label %.outer122, label %.loopexit, !llvm.loop !91

28:                                               ; preds = %4
  %29 = load i32, ptr @globalUtilOptind, align 4, !tbaa !81
  %.not50 = icmp slt i32 %29, %1
  br i1 %.not50, label %31, label %30

30:                                               ; preds = %28
  tail call void (i32, ptr, ...) @Abc_Print(i32 noundef -1, ptr noundef nonnull @.str.28)
  br label %.loopexit

31:                                               ; preds = %28
  %32 = sext i32 %29 to i64
  %33 = getelementptr inbounds ptr, ptr %2, i64 %32
  %34 = load ptr, ptr %33, align 8, !tbaa !82
  %35 = tail call i64 @strtol(ptr noundef nonnull captures(none) %34, ptr noundef null, i32 noundef 10) #12
  %36 = trunc i64 %35 to i32
  %37 = add nsw i32 %29, 1
  store i32 %37, ptr @globalUtilOptind, align 4, !tbaa !81
  %38 = icmp slt i32 %36, 0
  br i1 %38, label %.loopexit, label %.outer126, !llvm.loop !91

39:                                               ; preds = %4
  %40 = xor i32 %.0, 1
  br label %4, !llvm.loop !91

41:                                               ; preds = %4
  %42 = getelementptr inbounds nuw i8, ptr %0, i64 240
  %43 = load ptr, ptr %42, align 8, !tbaa !85
  %44 = icmp eq ptr %43, null
  br i1 %44, label %45, label %49

45:                                               ; preds = %41
  %46 = getelementptr inbounds nuw i8, ptr %0, i64 136
  %47 = load ptr, ptr %46, align 8, !tbaa !84
  %48 = tail call i64 @fwrite(ptr nonnull @.str.54, i64 39, i64 1, ptr %47)
  br label %.loopexit

49:                                               ; preds = %41
  %50 = load i32, ptr @globalUtilOptind, align 4, !tbaa !81
  %51 = add nsw i32 %50, 1
  %52 = icmp eq i32 %1, %51
  br i1 %52, label %53, label %57

53:                                               ; preds = %49
  %54 = sext i32 %50 to i64
  %55 = getelementptr inbounds ptr, ptr %2, i64 %54
  %56 = load ptr, ptr %55, align 8, !tbaa !82
  br label %57

57:                                               ; preds = %53, %49
  %.043 = phi ptr [ %56, %53 ], [ null, %49 ]
  tail call void @Abc_SclDumpGenlib(ptr noundef %.043, ptr noundef nonnull %43, float noundef %.040.ph, float noundef %.037.ph123, i32 noundef %.035.ph127) #12
  br label %78

.loopexit:                                        ; preds = %20, %4, %31, %9, %45, %30, %19, %8
  %.141 = phi float [ %.040.ph, %30 ], [ %.040.ph, %19 ], [ %.040.ph, %8 ], [ %.040.ph, %45 ], [ %.040.ph, %20 ], [ %.040.ph, %4 ], [ %.040.ph, %31 ], [ %14, %9 ]
  %.138 = phi float [ %.037.ph123, %30 ], [ %.037.ph123, %19 ], [ %.037.ph123, %8 ], [ %.037.ph123, %45 ], [ %.037.ph123, %31 ], [ %.037.ph123, %4 ], [ %25, %20 ], [ %.037.ph123, %9 ]
  %.136 = phi i32 [ %.035.ph127, %30 ], [ %.035.ph127, %19 ], [ %.035.ph127, %8 ], [ %.035.ph127, %45 ], [ %.035.ph127, %4 ], [ %36, %31 ], [ %.035.ph127, %20 ], [ %.035.ph127, %9 ]
  %58 = getelementptr inbounds nuw i8, ptr %0, i64 136
  %59 = load ptr, ptr %58, align 8, !tbaa !84
  %60 = tail call i64 @fwrite(ptr nonnull @.str.84, i64 53, i64 1, ptr %59)
  %61 = load ptr, ptr %58, align 8, !tbaa !84
  %62 = tail call i64 @fwrite(ptr nonnull @.str.85, i64 47, i64 1, ptr %61)
  %63 = load ptr, ptr %58, align 8, !tbaa !84
  %64 = fpext float %.141 to double
  %65 = tail call i32 (ptr, ptr, ...) @fprintf(ptr noundef %63, ptr noundef nonnull @.str.34, double noundef %64) #12
  %66 = load ptr, ptr %58, align 8, !tbaa !84
  %67 = fpext float %.138 to double
  %68 = tail call i32 (ptr, ptr, ...) @fprintf(ptr noundef %66, ptr noundef nonnull @.str.35, double noundef %67) #12
  %69 = load ptr, ptr %58, align 8, !tbaa !84
  %70 = tail call i32 (ptr, ptr, ...) @fprintf(ptr noundef %69, ptr noundef nonnull @.str.36, i32 noundef %.136) #12
  %71 = load ptr, ptr %58, align 8, !tbaa !84
  %.not53 = icmp eq i32 %.0, 0
  %72 = select i1 %.not53, ptr @.str.40, ptr @.str.39
  %73 = tail call i32 (ptr, ptr, ...) @fprintf(ptr noundef %71, ptr noundef nonnull @.str.74, ptr noundef nonnull %72) #12
  %74 = load ptr, ptr %58, align 8, !tbaa !84
  %75 = tail call i64 @fwrite(ptr nonnull @.str.86, i64 36, i64 1, ptr %74)
  %76 = load ptr, ptr %58, align 8, !tbaa !84
  %77 = tail call i64 @fwrite(ptr nonnull @.str.87, i64 38, i64 1, ptr %76)
  br label %78

78:                                               ; preds = %.loopexit, %57
  %.034 = phi i32 [ 1, %.loopexit ], [ 0, %57 ]
  ret i32 %.034
}